target datalayout = "e-m:e-p270:32:32-p271:32:32-p272:64:64-i64:64-i128:128-f80:128-n8:16:32:64-S128"
target triple = "x86_64-pc-linux-gnu"

; Function Attrs: nounwind uwtable
define i64 @exr_compress_max_buffer_size(i64 noundef %0) #0 {
  %2 = alloca i64, align 8
  %3 = alloca i64, align 8
  %4 = alloca i64, align 8
  %5 = alloca i64, align 8
  %6 = alloca i32, align 4
  store i64 %0, ptr %3, align 8, !tbaa !3
  call void @llvm.lifetime.start.p0(i64 8, ptr %4) #4
  call void @llvm.lifetime.start.p0(i64 8, ptr %5) #4
  %7 = load i64, ptr %3, align 8, !tbaa !3
  %8 = call i64 @libdeflate_zlib_compress_bound(ptr noundef null, i64 noundef %7)
  store i64 %8, ptr %4, align 8, !tbaa !3
  %9 = load i64, ptr %4, align 8, !tbaa !3
  %10 = icmp ugt i64 %9, -10
  br i1 %10, label %11, label %12

11:                                               ; preds = %1
  store i64 -1, ptr %2, align 8
  store i32 1, ptr %6, align 4
  br label %57

12:                                               ; preds = %1
  %13 = load i64, ptr %4, align 8, !tbaa !3
  %14 = add i64 %13, 9
  store i64 %14, ptr %4, align 8, !tbaa !3
  %15 = load i64, ptr %4, align 8, !tbaa !3
  %16 = mul i64 %15, 130
  store i64 %16, ptr %5, align 8, !tbaa !3
  %17 = load i64, ptr %5, align 8, !tbaa !3
  %18 = load i64, ptr %4, align 8, !tbaa !3
  %19 = icmp ult i64 %17, %18
  br i1 %19, label %20, label %21

20:                                               ; preds = %12
  store i64 -1, ptr %2, align 8
  store i32 1, ptr %6, align 4
  br label %57

21:                                               ; preds = %12
  %22 = load i64, ptr %5, align 8, !tbaa !3
  %23 = udiv i64 %22, 128
  store i64 %23, ptr %5, align 8, !tbaa !3
  %24 = load i64, ptr %5, align 8, !tbaa !3
  %25 = icmp ugt i64 %24, -101
  br i1 %25, label %26, label %27

26:                                               ; preds = %21
  store i64 -1, ptr %2, align 8
  store i32 1, ptr %6, align 4
  br label %57

27:                                               ; preds = %21
  %28 = load i64, ptr %5, align 8, !tbaa !3
  %29 = load i64, ptr %4, align 8, !tbaa !3
  %30 = icmp ugt i64 %28, %29
  br i1 %30, label %31, label %33

31:                                               ; preds = %27
  %32 = load i64, ptr %5, align 8, !tbaa !3
  store i64 %32, ptr %4, align 8, !tbaa !3
  br label %33

33:                                               ; preds = %31, %27
  %34 = load i64, ptr %3, align 8, !tbaa !3
  %35 = call i64 @internal_exr_huf_compress_spare_bytes()
  %36 = add i64 %34, %35
  store i64 %36, ptr %5, align 8, !tbaa !3
  %37 = load i64, ptr %4, align 8, !tbaa !3
  %38 = load i64, ptr %5, align 8, !tbaa !3
  %39 = icmp ult i64 %37, %38
  br i1 %39, label %40, label %42

40:                                               ; preds = %33
  %41 = load i64, ptr %5, align 8, !tbaa !3
  store i64 %41, ptr %4, align 8, !tbaa !3
  br label %42

42:                                               ; preds = %40, %33
  %43 = load i64, ptr %3, align 8, !tbaa !3
  %44 = call i64 @internal_exr_huf_decompress_spare_bytes()
  %45 = add i64 %43, %44
  store i64 %45, ptr %5, align 8, !tbaa !3
  %46 = load i64, ptr %4, align 8, !tbaa !3
  %47 = load i64, ptr %5, align 8, !tbaa !3
  %48 = icmp ult i64 %46, %47
  br i1 %48, label %49, label %51

49:                                               ; preds = %42
  %50 = load i64, ptr %5, align 8, !tbaa !3
  store i64 %50, ptr %4, align 8, !tbaa !3
  br label %51

51:                                               ; preds = %49, %42
  %52 = load i64, ptr %4, align 8, !tbaa !3
  %53 = icmp ugt i64 8192, %52
  br i1 %53, label %54, label %55

54:                                               ; preds = %51
  store i64 8192, ptr %4, align 8, !tbaa !3
  br label %55

55:                                               ; preds = %54, %51
  %56 = load i64, ptr %4, align 8, !tbaa !3
  store i64 %56, ptr %2, align 8
  store i32 1, ptr %6, align 4
  br label %57

57:                                               ; preds = %55, %26, %20, %11
  call void @llvm.lifetime.end.p0(i64 8, ptr %5) #4
  call void @llvm.lifetime.end.p0(i64 8, ptr %4) #4
  %58 = load i64, ptr %2, align 8
  ret i64 %58
}