; Function Attrs: nounwind uwtable
define range(i64 8192, 0) i64 @exr_compress_max_buffer_size(i64 noundef %0) local_unnamed_addr #0 {
  %2 = tail call i64 @libdeflate_zlib_compress_bound(ptr noundef null, i64 noundef %0) #6
  %3 = icmp ugt i64 %2, -10
  br i1 %3, label %14, label %4

4:                                                ; preds = %1
  %5 = add nuw i64 %2, 9
  %6 = mul i64 %5, 130
  %7 = icmp ult i64 %6, %5
  br i1 %7, label %14, label %8

8:                                                ; preds = %4
  %9 = lshr i64 %6, 7
  %.0 = tail call i64 @llvm.umax.i64(i64 %9, i64 %5)
  %10 = tail call i64 @internal_exr_huf_compress_spare_bytes() #6
  %11 = add i64 %10, %0
  %.1 = tail call i64 @llvm.umax.i64(i64 %.0, i64 %11)
  %12 = tail call i64 @internal_exr_huf_decompress_spare_bytes() #6
  %13 = add i64 %12, %0
  %.2 = tail call i64 @llvm.umax.i64(i64 %.1, i64 %13)
  %spec.store.select = tail call i64 @llvm.umax.i64(i64 %.2, i64 8192)
  br label %14

14:                                               ; preds = %4, %1, %8
  %.022 = phi i64 [ %spec.store.select, %8 ], [ -1, %1 ], [ -1, %4 ]
  ret i64 %.022
}